target datalayout = "e-m:e-p270:32:32-p271:32:32-p272:64:64-i64:64-i128:128-f80:128-n8:16:32:64-S128"
target triple = "x86_64-pc-linux-gnu"

; Function Attrs: nounwind uwtable
define ptr @Map_LibraryReadFormulaStep(ptr noundef %0, ptr noundef %1, ptr noundef %2) #0 {
  %4 = alloca ptr, align 8
  %5 = alloca ptr, align 8
  %6 = alloca ptr, align 8
  %7 = alloca ptr, align 8
  %8 = alloca ptr, align 8
  %9 = alloca ptr, align 8
  %10 = alloca ptr, align 8
  %11 = alloca ptr, align 8
  %12 = alloca i32, align 4
  %13 = alloca i32, align 4
  %14 = alloca i32, align 4
  store ptr %0, ptr %5, align 8, !tbaa !8
  store ptr %1, ptr %6, align 8, !tbaa !41
  store ptr %2, ptr %7, align 8, !tbaa !43
  call void @llvm.lifetime.start.p0(i64 8, ptr %8) #8
  call void @llvm.lifetime.start.p0(i64 8, ptr %9) #8
  call void @llvm.lifetime.start.p0(i64 8, ptr %10) #8
  call void @llvm.lifetime.start.p0(i64 8, ptr %11) #8
  call void @llvm.lifetime.start.p0(i64 4, ptr %12) #8
  call void @llvm.lifetime.start.p0(i64 4, ptr %13) #8
  %15 = load ptr, ptr %5, align 8, !tbaa !8
  store ptr %15, ptr %8, align 8, !tbaa !8
  br label %16

16:                                               ; preds = %29, %3
  %17 = load ptr, ptr %8, align 8, !tbaa !8
  %18 = load i8, ptr %17, align 1, !tbaa !14
  %19 = sext i8 %18 to i32
  %20 = icmp ne i32 %19, 0
  br i1 %20, label %21, label %26

21:                                               ; preds = %16
  %22 = load ptr, ptr %8, align 8, !tbaa !8
  %23 = load i8, ptr %22, align 1, !tbaa !14
  %24 = sext i8 %23 to i32
  %25 = icmp eq i32 %24, 32
  br label %26

26:                                               ; preds = %21, %16
  %27 = phi i1 [ false, %16 ], [ %25, %21 ]
  br i1 %27, label %28, label %32

28:                                               ; preds = %26
  br label %29

29:                                               ; preds = %28
  %30 = load ptr, ptr %8, align 8, !tbaa !8
  %31 = getelementptr inbounds nuw i8, ptr %30, i32 1
  store ptr %31, ptr %8, align 8, !tbaa !8
  br label %16, !llvm.loop !45

32:                                               ; preds = %26
  %33 = load ptr, ptr %8, align 8, !tbaa !8
  store ptr %33, ptr %9, align 8, !tbaa !8
  br label %34

34:                                               ; preds = %47, %32
  %35 = load ptr, ptr %9, align 8, !tbaa !8
  %36 = load i8, ptr %35, align 1, !tbaa !14
  %37 = sext i8 %36 to i32
  %38 = icmp ne i32 %37, 0
  br i1 %38, label %39, label %44

39:                                               ; preds = %34
  %40 = load ptr, ptr %9, align 8, !tbaa !8
  %41 = load i8, ptr %40, align 1, !tbaa !14
  %42 = sext i8 %41 to i32
  %43 = icmp ne i32 %42, 40
  br label %44

44:                                               ; preds = %39, %34
  %45 = phi i1 [ false, %34 ], [ %43, %39 ]
  br i1 %45, label %46, label %50

46:                                               ; preds = %44
  br label %47

47:                                               ; preds = %46
  %48 = load ptr, ptr %9, align 8, !tbaa !8
  %49 = getelementptr inbounds nuw i8, ptr %48, i32 1
  store ptr %49, ptr %9, align 8, !tbaa !8
  br label %34, !llvm.loop !46

50:                                               ; preds = %44
  %51 = load ptr, ptr %9, align 8, !tbaa !8
  %52 = load i8, ptr %51, align 1, !tbaa !14
  %53 = sext i8 %52 to i32
  %54 = icmp eq i32 %53, 0
  br i1 %54, label %55, label %58

55:                                               ; preds = %50
  %56 = load ptr, ptr %7, align 8, !tbaa !43
  store i32 0, ptr %56, align 4, !tbaa !12
  %57 = load ptr, ptr %8, align 8, !tbaa !8
  store ptr %57, ptr %4, align 8
  store i32 1, ptr %14, align 4
  br label %159

58:                                               ; preds = %50
  %59 = load ptr, ptr %9, align 8, !tbaa !8
  store i8 0, ptr %59, align 1, !tbaa !14
  store i32 1, ptr %13, align 4, !tbaa !12
  %60 = load ptr, ptr %9, align 8, !tbaa !8
  %61 = getelementptr inbounds i8, ptr %60, i64 1
  store ptr %61, ptr %10, align 8, !tbaa !8
  br label %62

62:                                               ; preds = %90, %58
  %63 = load ptr, ptr %10, align 8, !tbaa !8
  %64 = load i8, ptr %63, align 1, !tbaa !14
  %65 = sext i8 %64 to i32
  %66 = icmp ne i32 %65, 0
  br i1 %66, label %67, label %70

67:                                               ; preds = %62
  %68 = load i32, ptr %13, align 4, !tbaa !12
  %69 = icmp ne i32 %68, 0
  br label %70

70:                                               ; preds = %67, %62
  %71 = phi i1 [ false, %62 ], [ %69, %67 ]
  br i1 %71, label %72, label %93

72:                                               ; preds = %70
  %73 = load ptr, ptr %10, align 8, !tbaa !8
  %74 = load i8, ptr %73, align 1, !tbaa !14
  %75 = sext i8 %74 to i32
  %76 = icmp eq i32 %75, 40
  br i1 %76, label %77, label %80

77:                                               ; preds = %72
  %78 = load i32, ptr %13, align 4, !tbaa !12
  %79 = add nsw i32 %78, 1
  store i32 %79, ptr %13, align 4, !tbaa !12
  br label %89

80:                                               ; preds = %72
  %81 = load ptr, ptr %10, align 8, !tbaa !8
  %82 = load i8, ptr %81, align 1, !tbaa !14
  %83 = sext i8 %82 to i32
  %84 = icmp eq i32 %83, 41
  br i1 %84, label %85, label %88

85:                                               ; preds = %80
  %86 = load i32, ptr %13, align 4, !tbaa !12
  %87 = add nsw i32 %86, -1
  store i32 %87, ptr %13, align 4, !tbaa !12
  br label %88

88:                                               ; preds = %85, %80
  br label %89

89:                                               ; preds = %88, %77
  br label %90

90:                                               ; preds = %89
  %91 = load ptr, ptr %10, align 8, !tbaa !8
  %92 = getelementptr inbounds nuw i8, ptr %91, i32 1
  store ptr %92, ptr %10, align 8, !tbaa !8
  br label %62, !llvm.loop !47

93:                                               ; preds = %70
  %94 = load ptr, ptr %10, align 8, !tbaa !8
  %95 = getelementptr inbounds i8, ptr %94, i32 -1
  store ptr %95, ptr %10, align 8, !tbaa !8
  %96 = load ptr, ptr %10, align 8, !tbaa !8
  store i8 0, ptr %96, align 1, !tbaa !14
  store i32 0, ptr %12, align 4, !tbaa !12
  %97 = load ptr, ptr %9, align 8, !tbaa !8
  %98 = getelementptr inbounds i8, ptr %97, i64 1
  store ptr %98, ptr %11, align 8, !tbaa !8
  br label %99

99:                                               ; preds = %151, %93
  br label %100

100:                                              ; preds = %99
  %101 = load ptr, ptr %11, align 8, !tbaa !8
  %102 = load ptr, ptr %6, align 8, !tbaa !41
  %103 = load i32, ptr %12, align 4, !tbaa !12
  %104 = add nsw i32 %103, 1
  store i32 %104, ptr %12, align 4, !tbaa !12
  %105 = sext i32 %103 to i64
  %106 = getelementptr inbounds ptr, ptr %102, i64 %105
  store ptr %101, ptr %106, align 8, !tbaa !8
  store i32 0, ptr %13, align 4, !tbaa !12
  br label %107

107:                                              ; preds = %142, %100
  %108 = load ptr, ptr %11, align 8, !tbaa !8
  %109 = load i8, ptr %108, align 1, !tbaa !14
  %110 = sext i8 %109 to i32
  %111 = icmp ne i32 %110, 0
  br i1 %111, label %112, label %122

112:                                              ; preds = %107
  %113 = load i32, ptr %13, align 4, !tbaa !12
  %114 = icmp ne i32 %113, 0
  br i1 %114, label %120, label %115

115:                                              ; preds = %112
  %116 = load ptr, ptr %11, align 8, !tbaa !8
  %117 = load i8, ptr %116, align 1, !tbaa !14
  %118 = sext i8 %117 to i32
  %119 = icmp ne i32 %118, 44
  br label %120

120:                                              ; preds = %115, %112
  %121 = phi i1 [ true, %112 ], [ %119, %115 ]
  br label %122

122:                                              ; preds = %120, %107
  %123 = phi i1 [ false, %107 ], [ %121, %120 ]
  br i1 %123, label %124, label %145

124:                                              ; preds = %122
  %125 = load ptr, ptr %11, align 8, !tbaa !8
  %126 = load i8, ptr %125, align 1, !tbaa !14
  %127 = sext i8 %126 to i32
  %128 = icmp eq i32 %127, 40
  br i1 %128, label %129, label %132

129:                                              ; preds = %124
  %130 = load i32, ptr %13, align 4, !tbaa !12
  %131 = add nsw i32 %130, 1
  store i32 %131, ptr %13, align 4, !tbaa !12
  br label %141

132:                                              ; preds = %124
  %133 = load ptr, ptr %11, align 8, !tbaa !8
  %134 = load i8, ptr %133, align 1, !tbaa !14
  %135 = sext i8 %134 to i32
  %136 = icmp eq i32 %135, 41
  br i1 %136, label %137, label %140

137:                                              ; preds = %132
  %138 = load i32, ptr %13, align 4, !tbaa !12
  %139 = add nsw i32 %138, -1
  store i32 %139, ptr %13, align 4, !tbaa !12
  br label %140

140:                                              ; preds = %137, %132
  br label %141

141:                                              ; preds = %140, %129
  br label %142

142:                                              ; preds = %141
  %143 = load ptr, ptr %11, align 8, !tbaa !8
  %144 = getelementptr inbounds nuw i8, ptr %143, i32 1
  store ptr %144, ptr %11, align 8, !tbaa !8
  br label %107, !llvm.loop !48

145:                                              ; preds = %122
  %146 = load ptr, ptr %11, align 8, !tbaa !8
  %147 = load i8, ptr %146, align 1, !tbaa !14
  %148 = sext i8 %147 to i32
  %149 = icmp eq i32 %148, 0
  br i1 %149, label %150, label %151

150:                                              ; preds = %145
  br label %155

151:                                              ; preds = %145
  %152 = load ptr, ptr %11, align 8, !tbaa !8
  store i8 0, ptr %152, align 1, !tbaa !14
  %153 = load ptr, ptr %11, align 8, !tbaa !8
  %154 = getelementptr inbounds nuw i8, ptr %153, i32 1
  store ptr %154, ptr %11, align 8, !tbaa !8
  br label %99

155:                                              ; preds = %150
  %156 = load i32, ptr %12, align 4, !tbaa !12
  %157 = load ptr, ptr %7, align 8, !tbaa !43
  store i32 %156, ptr %157, align 4, !tbaa !12
  %158 = load ptr, ptr %8, align 8, !tbaa !8
  store ptr %158, ptr %4, align 8
  store i32 1, ptr %14, align 4
  br label %159

159:                                              ; preds = %155, %55
  call void @llvm.lifetime.end.p0(i64 4, ptr %13) #8
  call void @llvm.lifetime.end.p0(i64 4, ptr %12) #8
  call void @llvm.lifetime.end.p0(i64 8, ptr %11) #8
  call void @llvm.lifetime.end.p0(i64 8, ptr %10) #8
  call void @llvm.lifetime.end.p0(i64 8, ptr %9) #8
  call void @llvm.lifetime.end.p0(i64 8, ptr %8) #8
  %160 = load ptr, ptr %4, align 8
  ret ptr %160
}