; Function Attrs: nofree norecurse nosync nounwind memory(argmem: readwrite) uwtable
define noundef ptr @Map_LibraryReadFormulaStep(ptr noundef %0, ptr noundef writeonly captures(none) %1, ptr noundef writeonly captures(none) %2) local_unnamed_addr #3 {
  br label %4

4:                                                ; preds = %4, %3
  %.051 = phi ptr [ %0, %3 ], [ %6, %4 ]
  %5 = load i8, ptr %.051, align 1, !tbaa !3
  %cond = icmp eq i8 %5, 32
  %6 = getelementptr inbounds nuw i8, ptr %.051, i64 1
  br i1 %cond, label %4, label %.critedge, !llvm.loop !43

.critedge:                                        ; preds = %4, %8
  %7 = phi i8 [ %.pr, %8 ], [ %5, %4 ]
  %.050 = phi ptr [ %9, %8 ], [ %.051, %4 ]
  switch i8 %7, label %8 [
    i8 0, label %.critedge4.thread
    i8 40, label %10
  ]

8:                                                ; preds = %.critedge
  %9 = getelementptr inbounds nuw i8, ptr %.050, i64 1
  %.pr = load i8, ptr %9, align 1, !tbaa !3
  br label %.critedge, !llvm.loop !44

10:                                               ; preds = %.critedge
  store i8 0, ptr %.050, align 1, !tbaa !3
  %11 = getelementptr inbounds nuw i8, ptr %.050, i64 1
  %12 = load i8, ptr %11, align 1, !tbaa !3
  %.not = icmp eq i8 %12, 0
  br i1 %.not, label %._crit_edge, label %.lr.ph

.lr.ph:                                           ; preds = %10, %18
  %13 = phi i8 [ %20, %18 ], [ %12, %10 ]
  %.068 = phi i32 [ %.1, %18 ], [ 1, %10 ]
  %.04967 = phi ptr [ %19, %18 ], [ %11, %10 ]
  switch i8 %13, label %18 [
    i8 40, label %14
    i8 41, label %16
  ]

14:                                               ; preds = %.lr.ph
  %15 = add nsw i32 %.068, 1
  br label %18

16:                                               ; preds = %.lr.ph
  %17 = add nsw i32 %.068, -1
  br label %18

18:                                               ; preds = %.lr.ph, %14, %16
  %.1 = phi i32 [ %15, %14 ], [ %17, %16 ], [ %.068, %.lr.ph ]
  %19 = getelementptr inbounds nuw i8, ptr %.04967, i64 1
  %20 = load i8, ptr %19, align 1, !tbaa !3
  %21 = icmp ne i8 %20, 0
  %22 = icmp ne i32 %.1, 0
  %23 = select i1 %21, i1 %22, i1 false
  br i1 %23, label %.lr.ph, label %._crit_edge, !llvm.loop !45

._crit_edge:                                      ; preds = %18, %10
  %24 = phi ptr [ %.050, %10 ], [ %.04967, %18 ]
  store i8 0, ptr %24, align 1, !tbaa !3
  store ptr %11, ptr %1, align 8, !tbaa !46
  %25 = load i8, ptr %11, align 1, !tbaa !3
  %.not606977 = icmp eq i8 %25, 0
  br i1 %.not606977, label %.critedge4.thread, label %.lr.ph73

.lr.ph73:                                         ; preds = %._crit_edge, %.critedge4
  %indvars.iv = phi i64 [ %indvars.iv.next, %.critedge4 ], [ 1, %._crit_edge ]
  %26 = phi i8 [ %38, %.critedge4 ], [ %25, %._crit_edge ]
  %.04778 = phi ptr [ %36, %.critedge4 ], [ %11, %._crit_edge ]
  br label %27

27:                                               ; preds = %.lr.ph73, %33
  %28 = phi i8 [ %26, %.lr.ph73 ], [ %35, %33 ]
  %.271 = phi i32 [ 0, %.lr.ph73 ], [ %.3, %33 ]
  %.14870 = phi ptr [ %.04778, %.lr.ph73 ], [ %34, %33 ]
  %.not61 = icmp eq i32 %.271, 0
  %.not62 = icmp eq i8 %28, 44
  %or.cond = and i1 %.not61, %.not62
  br i1 %or.cond, label %.critedge4, label %.critedge6

.critedge6:                                       ; preds = %27
  switch i8 %28, label %33 [
    i8 40, label %29
    i8 41, label %31
  ]

29:                                               ; preds = %.critedge6
  %30 = add nsw i32 %.271, 1
  br label %33

31:                                               ; preds = %.critedge6
  %32 = add nsw i32 %.271, -1
  br label %33

33:                                               ; preds = %.critedge6, %29, %31
  %.3 = phi i32 [ %30, %29 ], [ %32, %31 ], [ %.271, %.critedge6 ]
  %34 = getelementptr inbounds nuw i8, ptr %.14870, i64 1
  %35 = load i8, ptr %34, align 1, !tbaa !3
  %.not60 = icmp eq i8 %35, 0
  br i1 %.not60, label %.critedge4.thread.loopexit, label %27, !llvm.loop !47

.critedge4:                                       ; preds = %27
  store i8 0, ptr %.14870, align 1, !tbaa !3
  %36 = getelementptr inbounds nuw i8, ptr %.14870, i64 1
  %indvars.iv.next = add nuw nsw i64 %indvars.iv, 1
  %37 = getelementptr inbounds nuw ptr, ptr %1, i64 %indvars.iv
  store ptr %36, ptr %37, align 8, !tbaa !46
  %38 = load i8, ptr %36, align 1, !tbaa !3
  %.not6069 = icmp eq i8 %38, 0
  br i1 %.not6069, label %.critedge4.thread.loopexit80, label %.lr.ph73

.critedge4.thread.loopexit:                       ; preds = %33
  %39 = trunc nuw nsw i64 %indvars.iv to i32
  br label %.critedge4.thread

.critedge4.thread.loopexit80:                     ; preds = %.critedge4
  %40 = trunc nuw i64 %indvars.iv.next to i32
  br label %.critedge4.thread

.critedge4.thread:                                ; preds = %.critedge, %.critedge4.thread.loopexit80, %.critedge4.thread.loopexit, %._crit_edge
  %storemerge = phi i32 [ 1, %._crit_edge ], [ %39, %.critedge4.thread.loopexit ], [ %40, %.critedge4.thread.loopexit80 ], [ 0, %.critedge ]
  store i32 %storemerge, ptr %2, align 4, !tbaa !24
  ret ptr %.051
}